target datalayout = "e-m:e-p270:32:32-p271:32:32-p272:64:64-i64:64-i128:128-f80:128-n8:16:32:64-S128"
target triple = "x86_64-pc-linux-gnu"

%struct.aofInfo = type { ptr, i64, i32, i64, i64 }
%struct.sdshdr8 = type { i8, i8, i8, [0 x i8] }
%struct.sdshdr16 = type <{ i16, i16, i8, [0 x i8] }>
%struct.sdshdr32 = type <{ i32, i32, i8, [0 x i8] }>
%struct.sdshdr64 = type <{ i64, i64, i8, [0 x i8] }>

@.str.3 = private unnamed_addr constant [20 x i8] c"%s %s %s %lld %s %c\00", align 1
@.str.4 = private unnamed_addr constant [5 x i8] c"file\00", align 1
@.str.5 = private unnamed_addr constant [4 x i8] c"seq\00", align 1
@.str.6 = private unnamed_addr constant [5 x i8] c"type\00", align 1
@.str.7 = private unnamed_addr constant [9 x i8] c" %s %lld\00", align 1
@.str.8 = private unnamed_addr constant [12 x i8] c"startoffset\00", align 1
@.str.9 = private unnamed_addr constant [10 x i8] c"endoffset\00", align 1
@.str.10 = private unnamed_addr constant [2 x i8] c"\0A\00", align 1

; Function Attrs: inlinehint nounwind uwtable
define internal i64 @sdslen(ptr noundef %0) #6 {
  %2 = alloca i64, align 8
  %3 = alloca ptr, align 8
  %4 = alloca i8, align 1
  %5 = alloca i32, align 4
  store ptr %0, ptr %3, align 8, !tbaa !18
  call void @llvm.lifetime.start.p0(i64 1, ptr %4) #12
  %6 = load ptr, ptr %3, align 8, !tbaa !18
  %7 = getelementptr inbounds i8, ptr %6, i64 -1
  %8 = load i8, ptr %7, align 1, !tbaa !19
  store i8 %8, ptr %4, align 1, !tbaa !19
  %9 = load i8, ptr %4, align 1, !tbaa !19
  %10 = zext i8 %9 to i32
  %11 = and i32 %10, 7
  switch i32 %11, label %40 [
    i32 0, label %12
    i32 1, label %17
    i32 2, label %23
    i32 3, label %29
    i32 4, label %35
  ]

12:                                               ; preds = %1
  %13 = load i8, ptr %4, align 1, !tbaa !19
  %14 = zext i8 %13 to i32
  %15 = ashr i32 %14, 3
  %16 = sext i32 %15 to i64
  store i64 %16, ptr %2, align 8
  store i32 1, ptr %5, align 4
  br label %41

17:                                               ; preds = %1
  %18 = load ptr, ptr %3, align 8, !tbaa !18
  %19 = getelementptr inbounds i8, ptr %18, i64 -3
  %20 = getelementptr inbounds nuw %struct.sdshdr8, ptr %19, i32 0, i32 0
  %21 = load i8, ptr %20, align 1, !tbaa !19
  %22 = zext i8 %21 to i64
  store i64 %22, ptr %2, align 8
  store i32 1, ptr %5, align 4
  br label %41

23:                                               ; preds = %1
  %24 = load ptr, ptr %3, align 8, !tbaa !18
  %25 = getelementptr inbounds i8, ptr %24, i64 -5
  %26 = getelementptr inbounds nuw %struct.sdshdr16, ptr %25, i32 0, i32 0
  %27 = load i16, ptr %26, align 1, !tbaa !20
  %28 = zext i16 %27 to i64
  store i64 %28, ptr %2, align 8
  store i32 1, ptr %5, align 4
  br label %41

29:                                               ; preds = %1
  %30 = load ptr, ptr %3, align 8, !tbaa !18
  %31 = getelementptr inbounds i8, ptr %30, i64 -9
  %32 = getelementptr inbounds nuw %struct.sdshdr32, ptr %31, i32 0, i32 0
  %33 = load i32, ptr %32, align 1, !tbaa !22
  %34 = zext i32 %33 to i64
  store i64 %34, ptr %2, align 8
  store i32 1, ptr %5, align 4
  br label %41

35:                                               ; preds = %1
  %36 = load ptr, ptr %3, align 8, !tbaa !18
  %37 = getelementptr inbounds i8, ptr %36, i64 -17
  %38 = getelementptr inbounds nuw %struct.sdshdr64, ptr %37, i32 0, i32 0
  %39 = load i64, ptr %38, align 1, !tbaa !23
  store i64 %39, ptr %2, align 8
  store i32 1, ptr %5, align 4
  br label %41

40:                                               ; preds = %1
  store i64 0, ptr %2, align 8
  store i32 1, ptr %5, align 4
  br label %41

41:                                               ; preds = %40, %35, %29, %23, %17, %12
  call void @llvm.lifetime.end.p0(i64 1, ptr %4) #12
  %42 = load i64, ptr %2, align 8
  ret i64 %42
}

; Function Attrs: nounwind uwtable
define dso_local ptr @aofInfoFormat(ptr noundef %0, ptr noundef %1) #0 {
  %3 = alloca ptr, align 8
  %4 = alloca ptr, align 8
  %5 = alloca ptr, align 8
  %6 = alloca ptr, align 8
  store ptr %0, ptr %3, align 8, !tbaa !18
  store ptr %1, ptr %4, align 8, !tbaa !5
  call void @llvm.lifetime.start.p0(i64 8, ptr %5) #12
  store ptr null, ptr %5, align 8, !tbaa !18
  %7 = load ptr, ptr %4, align 8, !tbaa !5
  %8 = getelementptr inbounds nuw %struct.aofInfo, ptr %7, i32 0, i32 0
  %9 = load ptr, ptr %8, align 8, !tbaa !15
  %10 = call i32 @sdsneedsrepr(ptr noundef %9)
  %11 = icmp ne i32 %10, 0
  br i1 %11, label %12, label %22

12:                                               ; preds = %2
  %13 = call ptr @sdsempty()
  %14 = load ptr, ptr %4, align 8, !tbaa !5
  %15 = getelementptr inbounds nuw %struct.aofInfo, ptr %14, i32 0, i32 0
  %16 = load ptr, ptr %15, align 8, !tbaa !15
  %17 = load ptr, ptr %4, align 8, !tbaa !5
  %18 = getelementptr inbounds nuw %struct.aofInfo, ptr %17, i32 0, i32 0
  %19 = load ptr, ptr %18, align 8, !tbaa !15
  %20 = call i64 @sdslen(ptr noundef %19)
  %21 = call ptr @sdscatrepr(ptr noundef %13, ptr noundef %16, i64 noundef %20)
  store ptr %21, ptr %5, align 8, !tbaa !18
  br label %22

22:                                               ; preds = %12, %2
  call void @llvm.lifetime.start.p0(i64 8, ptr %6) #12
  %23 = load ptr, ptr %3, align 8, !tbaa !18
  %24 = load ptr, ptr %5, align 8, !tbaa !18
  %25 = icmp ne ptr %24, null
  br i1 %25, label %26, label %28

26:                                               ; preds = %22
  %27 = load ptr, ptr %5, align 8, !tbaa !18
  br label %32

28:                                               ; preds = %22
  %29 = load ptr, ptr %4, align 8, !tbaa !5
  %30 = getelementptr inbounds nuw %struct.aofInfo, ptr %29, i32 0, i32 0
  %31 = load ptr, ptr %30, align 8, !tbaa !15
  br label %32

32:                                               ; preds = %28, %26
  %33 = phi ptr [ %27, %26 ], [ %31, %28 ]
  %34 = load ptr, ptr %4, align 8, !tbaa !5
  %35 = getelementptr inbounds nuw %struct.aofInfo, ptr %34, i32 0, i32 1
  %36 = load i64, ptr %35, align 8, !tbaa !16
  %37 = load ptr, ptr %4, align 8, !tbaa !5
  %38 = getelementptr inbounds nuw %struct.aofInfo, ptr %37, i32 0, i32 2
  %39 = load i32, ptr %38, align 8, !tbaa !17
  %40 = call ptr (ptr, ptr, ...) @sdscatprintf(ptr noundef %23, ptr noundef @.str.3, ptr noundef @.str.4, ptr noundef %33, ptr noundef @.str.5, i64 noundef %36, ptr noundef @.str.6, i32 noundef %39)
  store ptr %40, ptr %6, align 8, !tbaa !18
  %41 = load ptr, ptr %4, align 8, !tbaa !5
  %42 = getelementptr inbounds nuw %struct.aofInfo, ptr %41, i32 0, i32 3
  %43 = load i64, ptr %42, align 8, !tbaa !9
  %44 = icmp ne i64 %43, -1
  br i1 %44, label %45, label %62

45:                                               ; preds = %32
  %46 = load ptr, ptr %6, align 8, !tbaa !18
  %47 = load ptr, ptr %4, align 8, !tbaa !5
  %48 = getelementptr inbounds nuw %struct.aofInfo, ptr %47, i32 0, i32 3
  %49 = load i64, ptr %48, align 8, !tbaa !9
  %50 = call ptr (ptr, ptr, ...) @sdscatprintf(ptr noundef %46, ptr noundef @.str.7, ptr noundef @.str.8, i64 noundef %49)
  store ptr %50, ptr %6, align 8, !tbaa !18
  %51 = load ptr, ptr %4, align 8, !tbaa !5
  %52 = getelementptr inbounds nuw %struct.aofInfo, ptr %51, i32 0, i32 4
  %53 = load i64, ptr %52, align 8, !tbaa !14
  %54 = icmp ne i64 %53, -1
  br i1 %54, label %55, label %61

55:                                               ; preds = %45
  %56 = load ptr, ptr %6, align 8, !tbaa !18
  %57 = load ptr, ptr %4, align 8, !tbaa !5
  %58 = getelementptr inbounds nuw %struct.aofInfo, ptr %57, i32 0, i32 4
  %59 = load i64, ptr %58, align 8, !tbaa !14
  %60 = call ptr (ptr, ptr, ...) @sdscatprintf(ptr noundef %56, ptr noundef @.str.7, ptr noundef @.str.9, i64 noundef %59)
  store ptr %60, ptr %6, align 8, !tbaa !18
  br label %61

61:                                               ; preds = %55, %45
  br label %62

62:                                               ; preds = %61, %32
  %63 = load ptr, ptr %6, align 8, !tbaa !18
  %64 = call ptr @sdscatlen(ptr noundef %63, ptr noundef @.str.10, i64 noundef 1)
  store ptr %64, ptr %6, align 8, !tbaa !18
  %65 = load ptr, ptr %5, align 8, !tbaa !18
  call void @sdsfree(ptr noundef %65)
  %66 = load ptr, ptr %6, align 8, !tbaa !18
  call void @llvm.lifetime.end.p0(i64 8, ptr %6) #12
  call void @llvm.lifetime.end.p0(i64 8, ptr %5) #12
  ret ptr %66
}