; Function Attrs: nounwind uwtable
define dso_local ptr @aofInfoFormat(ptr noundef %0, ptr noundef readonly captures(none) %1) local_unnamed_addr #0 {
  %3 = load ptr, ptr %1, align 8, !tbaa !6
  %4 = tail call i32 @sdsneedsrepr(ptr noundef %3) #20
  %.not = icmp eq i32 %4, 0
  br i1 %.not, label %.thread, label %5

5:                                                ; preds = %2
  %6 = tail call ptr @sdsempty() #20
  %7 = load ptr, ptr %1, align 8, !tbaa !6
  %8 = getelementptr inbounds i8, ptr %7, i64 -1
  %9 = load i8, ptr %8, align 1, !tbaa !18
  %10 = zext i8 %9 to i32
  %11 = and i32 %10, 7
  switch i32 %11, label %30 [
    i32 0, label %12
    i32 1, label %15
    i32 2, label %19
    i32 3, label %23
    i32 4, label %27
  ]

12:                                               ; preds = %5
  %13 = lshr i32 %10, 3
  %14 = zext nneg i32 %13 to i64
  br label %30

15:                                               ; preds = %5
  %16 = getelementptr inbounds i8, ptr %7, i64 -3
  %17 = load i8, ptr %16, align 1, !tbaa !18
  %18 = zext i8 %17 to i64
  br label %30

19:                                               ; preds = %5
  %20 = getelementptr inbounds i8, ptr %7, i64 -5
  %21 = load i16, ptr %20, align 1, !tbaa !19
  %22 = zext i16 %21 to i64
  br label %30

23:                                               ; preds = %5
  %24 = getelementptr inbounds i8, ptr %7, i64 -9
  %25 = load i32, ptr %24, align 1, !tbaa !21
  %26 = zext i32 %25 to i64
  br label %30

27:                                               ; preds = %5
  %28 = getelementptr inbounds i8, ptr %7, i64 -17
  %29 = load i64, ptr %28, align 1, !tbaa !22
  br label %30

30:                                               ; preds = %27, %23, %19, %15, %12, %5
  %.0.i = phi i64 [ %29, %27 ], [ %26, %23 ], [ %22, %19 ], [ %18, %15 ], [ %14, %12 ], [ 0, %5 ]
  %31 = tail call ptr @sdscatrepr(ptr noundef %6, ptr noundef nonnull %7, i64 noundef %.0.i) #20
  %.not21 = icmp eq ptr %31, null
  br i1 %.not21, label %.thread, label %33

.thread:                                          ; preds = %2, %30
  %32 = load ptr, ptr %1, align 8, !tbaa !6
  br label %33

33:                                               ; preds = %30, %.thread
  %.01826 = phi ptr [ null, %.thread ], [ %31, %30 ]
  %34 = phi ptr [ %32, %.thread ], [ %31, %30 ]
  %35 = getelementptr inbounds nuw i8, ptr %1, i64 8
  %36 = load i64, ptr %35, align 8, !tbaa !14
  %37 = getelementptr inbounds nuw i8, ptr %1, i64 16
  %38 = load i32, ptr %37, align 8, !tbaa !15
  %39 = tail call ptr (ptr, ptr, ...) @sdscatprintf(ptr noundef %0, ptr noundef nonnull @.str.3, ptr noundef nonnull @.str.4, ptr noundef %34, ptr noundef nonnull @.str.5, i64 noundef %36, ptr noundef nonnull @.str.6, i32 noundef %38) #20
  %40 = getelementptr inbounds nuw i8, ptr %1, i64 24
  %41 = load i64, ptr %40, align 8, !tbaa !16
  %.not22 = icmp eq i64 %41, -1
  br i1 %.not22, label %48, label %42

42:                                               ; preds = %33
  %43 = tail call ptr (ptr, ptr, ...) @sdscatprintf(ptr noundef %39, ptr noundef nonnull @.str.7, ptr noundef nonnull @.str.8, i64 noundef %41) #20
  %44 = getelementptr inbounds nuw i8, ptr %1, i64 32
  %45 = load i64, ptr %44, align 8, !tbaa !17
  %.not23 = icmp eq i64 %45, -1
  br i1 %.not23, label %48, label %46

46:                                               ; preds = %42
  %47 = tail call ptr (ptr, ptr, ...) @sdscatprintf(ptr noundef %43, ptr noundef nonnull @.str.7, ptr noundef nonnull @.str.9, i64 noundef %45) #20
  br label %48

48:                                               ; preds = %42, %46, %33
  %.0 = phi ptr [ %47, %46 ], [ %43, %42 ], [ %39, %33 ]
  %49 = tail call ptr @sdscatlen(ptr noundef %.0, ptr noundef nonnull @.str.10, i64 noundef 1) #20
  tail call void @sdsfree(ptr noundef %.01826) #20
  ret ptr %49
}